; Function Attrs: mustprogress nofree norecurse nosync nounwind willreturn memory(argmem: read) uwtable
define noundef i64 @_ZNK5faiss18IndexIVFPQFastScan25train_encoder_num_vectorsEv(ptr nocapture noundef nonnull readonly align 8 dereferenceable(568) %0) unnamed_addr #3 align 2 {
  %2 = getelementptr inbounds i8, ptr %0, i64 412
  %3 = load i32, ptr %2, align 4
  %4 = sext i32 %3 to i64
  %5 = getelementptr inbounds i8, ptr %0, i64 376
  %6 = load i64, ptr %5, align 8
  %7 = mul i64 %6, %4
  ret i64 %7
}